ARM GAS  C:\Users\ludo\AppData\Local\Temp\cca5ZgpD.s 			page 1


   1              		.cpu cortex-m4
   2              		.eabi_attribute 27, 1
   3              		.eabi_attribute 28, 1
   4              		.eabi_attribute 20, 1
   5              		.eabi_attribute 21, 1
   6              		.eabi_attribute 23, 3
   7              		.eabi_attribute 24, 1
   8              		.eabi_attribute 25, 1
   9              		.eabi_attribute 26, 1
  10              		.eabi_attribute 30, 2
  11              		.eabi_attribute 34, 1
  12              		.eabi_attribute 18, 4
  13              		.file	"audio_processing.c"
  14              		.text
  15              	.Ltext0:
  16              		.cfi_sections	.debug_frame
  17              		.section	.text.led_mon,"ax",%progbits
  18              		.align	1
  19              		.p2align 4,,15
  20              		.global	led_mon
  21              		.syntax unified
  22              		.thumb
  23              		.thumb_func
  24              		.fpu fpv4-sp-d16
  25              		.type	led_mon, %function
  26              	led_mon:
  27              	.LFB289:
  28              		.file 1 "audio_processing.c"
  29              		.loc 1 54 0
  30              		.cfi_startproc
  31              		@ args = 0, pretend = 0, frame = 8
  32              		@ frame_needed = 0, uses_anonymous_args = 0
  33              	.LVL0:
  34 0000 30B5     		push	{r4, r5, lr}
  35              		.cfi_def_cfa_offset 12
  36              		.cfi_offset 4, -12
  37              		.cfi_offset 5, -8
  38              		.cfi_offset 14, -4
  39 0002 6A4C     		ldr	r4, .L49
  40 0004 83B0     		sub	sp, sp, #12
  41              		.cfi_def_cfa_offset 24
  42              		.loc 1 59 0
  43 0006 F4EEC00A 		vcmpe.f32	s1, s0
  44              		.loc 1 54 0
  45 000a 2368     		ldr	r3, [r4]
  46 000c 0193     		str	r3, [sp, #4]
  47              		.loc 1 59 0
  48 000e F1EE10FA 		vmrs	APSR_nzcv, FPSCR
  49 0012 29DD     		ble	.L34
  50              		.loc 1 60 0
  51 0014 664B     		ldr	r3, .L49+4
  52              		.loc 1 61 0
  53 0016 B4EEE11A 		vcmpe.f32	s2, s3
  54              		.loc 1 60 0
  55 001a 0125     		movs	r5, #1
  56              		.loc 1 61 0
  57 001c F1EE10FA 		vmrs	APSR_nzcv, FPSCR
ARM GAS  C:\Users\ludo\AppData\Local\Temp\cca5ZgpD.s 			page 2


  58              		.loc 1 60 0
  59 0020 1D70     		strb	r5, [r3]
  60              		.loc 1 61 0
  61 0022 49DD     		ble	.L35
  62              		.loc 1 62 0
  63 0024 70EEC17A 		vsub.f32	s15, s1, s2
  64 0028 47F22E52 		movw	r2, #29998
  65 002c FDEEE77A 		vcvt.s32.f32	s15, s15
  66 0030 17EE903A 		vmov	r3, s15	@ int
  67 0034 03F56A53 		add	r3, r3, #14976
  68 0038 1733     		adds	r3, r3, #23
  69 003a 9342     		cmp	r3, r2
  70 003c 40F28680 		bls	.L44
  71              		.loc 1 65 0
  72 0040 F4EEC10A 		vcmpe.f32	s1, s2
  73 0044 F1EE10FA 		vmrs	APSR_nzcv, FPSCR
  74 0048 40F18A80 		bpl	.L8
  75              	.L22:
  76              		.loc 1 66 0
  77 004c FFF7FEFF 		bl	clear_leds
  78              	.LVL1:
  79              		.loc 1 67 0
  80 0050 019A     		ldr	r2, [sp, #4]
  81 0052 2368     		ldr	r3, [r4]
  82 0054 9A42     		cmp	r2, r3
  83 0056 40F0A680 		bne	.L41
  84 005a 0121     		movs	r1, #1
  85 005c 0020     		movs	r0, #0
  86              		.loc 1 112 0
  87 005e 03B0     		add	sp, sp, #12
  88              		.cfi_remember_state
  89              		.cfi_def_cfa_offset 12
  90              		@ sp needed
  91 0060 BDE83040 		pop	{r4, r5, lr}
  92              		.cfi_restore 14
  93              		.cfi_restore 5
  94              		.cfi_restore 4
  95              		.cfi_def_cfa_offset 0
  96              		.loc 1 70 0
  97 0064 FFF7FEBF 		b	set_led
  98              	.LVL2:
  99              	.L34:
 100              		.cfi_restore_state
 101              		.loc 1 84 0
 102 0068 58D5     		bpl	.L36
 103              		.loc 1 85 0
 104 006a 514B     		ldr	r3, .L49+4
 105              		.loc 1 86 0
 106 006c B4EEE11A 		vcmpe.f32	s2, s3
 107              		.loc 1 85 0
 108 0070 0025     		movs	r5, #0
 109              		.loc 1 86 0
 110 0072 F1EE10FA 		vmrs	APSR_nzcv, FPSCR
 111              		.loc 1 85 0
 112 0076 1D70     		strb	r5, [r3]
 113              		.loc 1 86 0
 114 0078 3DDC     		bgt	.L45
ARM GAS  C:\Users\ludo\AppData\Local\Temp\cca5ZgpD.s 			page 3


 115              		.loc 1 98 0
 116 007a 70EE617A 		vsub.f32	s15, s0, s3
 117 007e 49F63E43 		movw	r3, #39998
 118 0082 FDEEE77A 		vcvt.s32.f32	s15, s15
 119 0086 17EE902A 		vmov	r2, s15	@ int
 120 008a 02F59C42 		add	r2, r2, #19968
 121 008e 1F32     		adds	r2, r2, #31
 122 0090 9A42     		cmp	r2, r3
 123 0092 72D9     		bls	.L46
 124              		.loc 1 101 0
 125 0094 B4EEE10A 		vcmpe.f32	s0, s3
 126 0098 F1EE10FA 		vmrs	APSR_nzcv, FPSCR
 127 009c 1ED4     		bmi	.L26
 128              	.L27:
 129              		.loc 1 94 0
 130 009e FFF7FEFF 		bl	clear_leds
 131              	.LVL3:
 132              		.loc 1 95 0
 133 00a2 019A     		ldr	r2, [sp, #4]
 134 00a4 2368     		ldr	r3, [r4]
 135 00a6 9A42     		cmp	r2, r3
 136 00a8 7DD1     		bne	.L41
 137 00aa 0121     		movs	r1, #1
 138 00ac 0320     		movs	r0, #3
 139              		.loc 1 112 0
 140 00ae 03B0     		add	sp, sp, #12
 141              		.cfi_remember_state
 142              		.cfi_def_cfa_offset 12
 143              		@ sp needed
 144 00b0 BDE83040 		pop	{r4, r5, lr}
 145              		.cfi_restore 14
 146              		.cfi_restore 5
 147              		.cfi_restore 4
 148              		.cfi_def_cfa_offset 0
 149              		.loc 1 70 0
 150 00b4 FFF7FEBF 		b	set_led
 151              	.LVL4:
 152              	.L35:
 153              		.cfi_restore_state
 154              		.loc 1 73 0
 155 00b8 70EEE17A 		vsub.f32	s15, s1, s3
 156 00bc 49F63E42 		movw	r2, #39998
 157 00c0 FDEEE77A 		vcvt.s32.f32	s15, s15
 158 00c4 17EE903A 		vmov	r3, s15	@ int
 159 00c8 03F59C43 		add	r3, r3, #19968
 160 00cc 1F33     		adds	r3, r3, #31
 161 00ce 9342     		cmp	r3, r2
 162 00d0 2DD9     		bls	.L47
 163              		.loc 1 76 0
 164 00d2 F4EEE10A 		vcmpe.f32	s1, s3
 165 00d6 F1EE10FA 		vmrs	APSR_nzcv, FPSCR
 166 00da 41D5     		bpl	.L8
 167              	.L26:
 168              		.loc 1 77 0
 169 00dc FFF7FEFF 		bl	clear_leds
 170              	.LVL5:
 171              		.loc 1 78 0
ARM GAS  C:\Users\ludo\AppData\Local\Temp\cca5ZgpD.s 			page 4


 172 00e0 019A     		ldr	r2, [sp, #4]
 173 00e2 2368     		ldr	r3, [r4]
 174 00e4 9A42     		cmp	r2, r3
 175 00e6 5ED1     		bne	.L41
 176 00e8 0121     		movs	r1, #1
 177 00ea 0220     		movs	r0, #2
 178              		.loc 1 112 0
 179 00ec 03B0     		add	sp, sp, #12
 180              		.cfi_remember_state
 181              		.cfi_def_cfa_offset 12
 182              		@ sp needed
 183 00ee BDE83040 		pop	{r4, r5, lr}
 184              		.cfi_restore 14
 185              		.cfi_restore 5
 186              		.cfi_restore 4
 187              		.cfi_def_cfa_offset 0
 188              		.loc 1 70 0
 189 00f2 FFF7FEBF 		b	set_led
 190              	.LVL6:
 191              	.L45:
 192              		.cfi_restore_state
 193              		.loc 1 87 0
 194 00f6 71EE407A 		vsub.f32	s15, s2, s0
 195 00fa 47F22E53 		movw	r3, #29998
 196 00fe FDEEE77A 		vcvt.s32.f32	s15, s15
 197 0102 17EE902A 		vmov	r2, s15	@ int
 198 0106 02F56A52 		add	r2, r2, #14976
 199 010a 1732     		adds	r2, r2, #23
 200 010c 9A42     		cmp	r2, r3
 201 010e 3FD9     		bls	.L48
 202              		.loc 1 90 0
 203 0110 B4EEC10A 		vcmpe.f32	s0, s2
 204 0114 F1EE10FA 		vmrs	APSR_nzcv, FPSCR
 205 0118 98D4     		bmi	.L22
 206 011a C0E7     		b	.L27
 207              	.L36:
 208              		.loc 1 110 0
 209 011c 019A     		ldr	r2, [sp, #4]
 210 011e 2368     		ldr	r3, [r4]
 211 0120 9A42     		cmp	r2, r3
 212 0122 40D1     		bne	.L41
 213              		.loc 1 112 0
 214 0124 03B0     		add	sp, sp, #12
 215              		.cfi_remember_state
 216              		.cfi_def_cfa_offset 12
 217              		@ sp needed
 218 0126 BDE83040 		pop	{r4, r5, lr}
 219              		.cfi_restore 14
 220              		.cfi_restore 5
 221              		.cfi_restore 4
 222              		.cfi_def_cfa_offset 0
 223              		.loc 1 110 0
 224 012a FFF7FEBF 		b	clear_leds
 225              	.LVL7:
 226              	.L47:
 227              		.cfi_restore_state
 228              		.loc 1 74 0
ARM GAS  C:\Users\ludo\AppData\Local\Temp\cca5ZgpD.s 			page 5


 229 012e FFF7FEFF 		bl	clear_leds
 230              	.LVL8:
 231              		.loc 1 75 0
 232 0132 019A     		ldr	r2, [sp, #4]
 233 0134 2368     		ldr	r3, [r4]
 234 0136 9A42     		cmp	r2, r3
 235 0138 35D1     		bne	.L41
 236 013a 0023     		movs	r3, #0
 237 013c 2846     		mov	r0, r5
 238 013e 1946     		mov	r1, r3
 239              	.L39:
 240 0140 6422     		movs	r2, #100
 241              	.L42:
 242              		.loc 1 112 0
 243 0142 03B0     		add	sp, sp, #12
 244              		.cfi_remember_state
 245              		.cfi_def_cfa_offset 12
 246              		@ sp needed
 247 0144 BDE83040 		pop	{r4, r5, lr}
 248              		.cfi_restore 14
 249              		.cfi_restore 5
 250              		.cfi_restore 4
 251              		.cfi_def_cfa_offset 0
 252              		.loc 1 75 0
 253 0148 FFF7FEBF 		b	set_rgb_led
 254              	.LVL9:
 255              	.L44:
 256              		.cfi_restore_state
 257              		.loc 1 63 0
 258 014c FFF7FEFF 		bl	clear_leds
 259              	.LVL10:
 260              		.loc 1 64 0
 261 0150 019A     		ldr	r2, [sp, #4]
 262 0152 2368     		ldr	r3, [r4]
 263 0154 9A42     		cmp	r2, r3
 264 0156 26D1     		bne	.L41
 265 0158 0023     		movs	r3, #0
 266 015a 1946     		mov	r1, r3
 267 015c 1846     		mov	r0, r3
 268 015e EFE7     		b	.L39
 269              	.LVL11:
 270              	.L8:
 271              		.loc 1 69 0
 272 0160 FFF7FEFF 		bl	clear_leds
 273              	.LVL12:
 274              		.loc 1 70 0
 275 0164 019A     		ldr	r2, [sp, #4]
 276 0166 2368     		ldr	r3, [r4]
 277 0168 9A42     		cmp	r2, r3
 278 016a 1CD1     		bne	.L41
 279 016c 0121     		movs	r1, #1
 280 016e 0846     		mov	r0, r1
 281              		.loc 1 112 0
 282 0170 03B0     		add	sp, sp, #12
 283              		.cfi_remember_state
 284              		.cfi_def_cfa_offset 12
 285              		@ sp needed
ARM GAS  C:\Users\ludo\AppData\Local\Temp\cca5ZgpD.s 			page 6


 286 0172 BDE83040 		pop	{r4, r5, lr}
 287              		.cfi_restore 14
 288              		.cfi_restore 5
 289              		.cfi_restore 4
 290              		.cfi_def_cfa_offset 0
 291              		.loc 1 70 0
 292 0176 FFF7FEBF 		b	set_led
 293              	.LVL13:
 294              	.L46:
 295              		.cfi_restore_state
 296              		.loc 1 99 0
 297 017a FFF7FEFF 		bl	clear_leds
 298              	.LVL14:
 299              		.loc 1 100 0
 300 017e 019A     		ldr	r2, [sp, #4]
 301 0180 2368     		ldr	r3, [r4]
 302 0182 9A42     		cmp	r2, r3
 303 0184 0FD1     		bne	.L41
 304 0186 2B46     		mov	r3, r5
 305 0188 2946     		mov	r1, r5
 306 018a 6422     		movs	r2, #100
 307 018c 0220     		movs	r0, #2
 308 018e D8E7     		b	.L42
 309              	.LVL15:
 310              	.L48:
 311              		.loc 1 88 0
 312 0190 FFF7FEFF 		bl	clear_leds
 313              	.LVL16:
 314              		.loc 1 89 0
 315 0194 019A     		ldr	r2, [sp, #4]
 316 0196 2368     		ldr	r3, [r4]
 317 0198 9A42     		cmp	r2, r3
 318 019a 04D1     		bne	.L41
 319 019c 2B46     		mov	r3, r5
 320 019e 2946     		mov	r1, r5
 321 01a0 6422     		movs	r2, #100
 322 01a2 0320     		movs	r0, #3
 323 01a4 CDE7     		b	.L42
 324              	.L41:
 325              		.loc 1 110 0
 326 01a6 FFF7FEFF 		bl	__stack_chk_fail
 327              	.LVL17:
 328              	.L50:
 329 01aa 00BF     		.align	2
 330              	.L49:
 331 01ac 00000000 		.word	__stack_chk_guard
 332 01b0 00000000 		.word	.LANCHOR0
 333              		.cfi_endproc
 334              	.LFE289:
 335              		.size	led_mon, .-led_mon
 336              		.section	.text.sound_remote,"ax",%progbits
 337              		.align	1
 338              		.p2align 4,,15
 339              		.global	sound_remote
 340              		.syntax unified
 341              		.thumb
 342              		.thumb_func
ARM GAS  C:\Users\ludo\AppData\Local\Temp\cca5ZgpD.s 			page 7


 343              		.fpu fpv4-sp-d16
 344              		.type	sound_remote, %function
 345              	sound_remote:
 346              	.LFB290:
 347              		.loc 1 119 0
 348              		.cfi_startproc
 349              		@ args = 0, pretend = 0, frame = 8
 350              		@ frame_needed = 0, uses_anonymous_args = 0
 351              	.LVL18:
 352 0000 F0B5     		push	{r4, r5, r6, r7, lr}
 353              		.cfi_def_cfa_offset 20
 354              		.cfi_offset 4, -20
 355              		.cfi_offset 5, -16
 356              		.cfi_offset 6, -12
 357              		.cfi_offset 7, -8
 358              		.cfi_offset 14, -4
 359 0002 2DED028B 		vpush.64	{d8}
 360              		.cfi_def_cfa_offset 28
 361              		.cfi_offset 80, -28
 362              		.cfi_offset 81, -24
 363 0006 424E     		ldr	r6, .L75
 364              		.loc 1 123 0
 365 0008 DFED420A 		vldr.32	s1, .L75+4
 366              		.loc 1 119 0
 367 000c 3468     		ldr	r4, [r6]
 368 000e 83B0     		sub	sp, sp, #12
 369              		.cfi_def_cfa_offset 40
 370              		.loc 1 122 0
 371 0010 F0EE601A 		vmov.f32	s3, s1
 372              		.loc 1 119 0
 373 0014 0194     		str	r4, [sp, #4]
 374              	.LVL19:
 375              		.loc 1 121 0
 376 0016 B0EE601A 		vmov.f32	s2, s1
 377              		.loc 1 120 0
 378 001a B0EE608A 		vmov.f32	s16, s1
 379 001e F030     		adds	r0, r0, #240
 380              	.LVL20:
 381 0020 F033     		adds	r3, r3, #240
 382              	.LVL21:
 383 0022 F032     		adds	r2, r2, #240
 384              	.LVL22:
 385 0024 F031     		adds	r1, r1, #240
 386              	.LVL23:
 387              	.LBB4:
 388              		.loc 1 129 0
 389 0026 3C24     		movs	r4, #60
 390              	.LBE4:
 391              		.loc 1 125 0
 392 0028 4FF0FF35 		mov	r5, #-1
 393              	.LVL24:
 394              	.L57:
 395              	.LBB5:
 396              		.loc 1 130 0
 397 002c F0EC017A 		vldmia.32	r0!, {s15}
 398              		.loc 1 134 0
 399 0030 F1EC016A 		vldmia.32	r1!, {s13}
ARM GAS  C:\Users\ludo\AppData\Local\Temp\cca5ZgpD.s 			page 8


 400              		.loc 1 137 0
 401 0034 B2EC017A 		vldmia.32	r2!, {s14}
 402              		.loc 1 130 0
 403 0038 F4EEC87A 		vcmpe.f32	s15, s16
 404 003c F1EE10FA 		vmrs	APSR_nzcv, FPSCR
 405              	.LVL25:
 406              		.loc 1 131 0
 407 0040 C8BF     		it	gt
 408 0042 B0EE678A 		vmovgt.f32	s16, s15
 409              		.loc 1 135 0
 410 0046 F4EE606A 		vcmp.f32	s13, s1
 411              		.loc 1 140 0
 412 004a F3EC017A 		vldmia.32	r3!, {s15}
 413              	.LVL26:
 414              		.loc 1 132 0
 415 004e C8BF     		it	gt
 416 0050 25B2     		sxthgt	r5, r4
 417              	.LVL27:
 418              		.loc 1 135 0
 419 0052 F1EE10FA 		vmrs	APSR_nzcv, FPSCR
 420              		.loc 1 138 0
 421 0056 B4EE417A 		vcmp.f32	s14, s2
 422              		.loc 1 129 0
 423 005a 04F10104 		add	r4, r4, #1
 424              	.LVL28:
 425              		.loc 1 135 0
 426 005e C8BF     		it	gt
 427 0060 F0EE660A 		vmovgt.f32	s1, s13
 428              	.LVL29:
 429              		.loc 1 138 0
 430 0064 F1EE10FA 		vmrs	APSR_nzcv, FPSCR
 431              		.loc 1 141 0
 432 0068 F4EE617A 		vcmp.f32	s15, s3
 433              		.loc 1 129 0
 434 006c A4B2     		uxth	r4, r4
 435              		.loc 1 138 0
 436 006e C8BF     		it	gt
 437 0070 B0EE471A 		vmovgt.f32	s2, s14
 438              	.LVL30:
 439              		.loc 1 141 0
 440 0074 F1EE10FA 		vmrs	APSR_nzcv, FPSCR
 441 0078 C8BF     		it	gt
 442 007a F0EE671A 		vmovgt.f32	s3, s15
 443              	.LVL31:
 444              		.loc 1 129 0
 445 007e 512C     		cmp	r4, #81
 446 0080 D4D1     		bne	.L57
 447              	.LBE5:
 448              		.loc 1 147 0
 449 0082 B0EE480A 		vmov.f32	s0, s16
 450 0086 FFF7FEFF 		bl	led_mon
 451              	.LVL32:
 452              		.loc 1 151 0
 453 008a A5F14103 		sub	r3, r5, #65
 454 008e 9BB2     		uxth	r3, r3
 455 0090 052B     		cmp	r3, #5
 456 0092 10D9     		bls	.L58
ARM GAS  C:\Users\ludo\AppData\Local\Temp\cca5ZgpD.s 			page 9


 457 0094 204B     		ldr	r3, .L75+8
 458 0096 214C     		ldr	r4, .L75+12
 459              	.LVL33:
 460 0098 1B78     		ldrb	r3, [r3]	@ zero_extendqisi2
 461              	.L59:
 462              		.loc 1 159 0
 463 009a C3B1     		cbz	r3, .L61
 464              	.L73:
 465              		.loc 1 165 0
 466 009c 462D     		cmp	r5, #70
 467 009e 20DD     		ble	.L72
 468              		.loc 1 166 0
 469 00a0 1F4B     		ldr	r3, .L75+16
 470 00a2 A3FB0535 		umull	r3, r5, r3, r5
 471 00a6 2D09     		lsrs	r5, r5, #4
 472 00a8 07EE905A 		vmov	s15, r5	@ int
 473 00ac F8EEE77A 		vcvt.f32.s32	s15, s15
 474 00b0 C4ED007A 		vstr.32	s15, [r4]
 475              		.loc 1 168 0
 476 00b4 0DE0     		b	.L51
 477              	.LVL34:
 478              	.L58:
 479              		.loc 1 151 0 discriminator 1
 480 00b6 DFED1B7A 		vldr.32	s15, .L75+20
 481 00ba 174F     		ldr	r7, .L75+8
 482 00bc B4EEE78A 		vcmpe.f32	s16, s15
 483 00c0 F1EE10FA 		vmrs	APSR_nzcv, FPSCR
 484 00c4 3B78     		ldrb	r3, [r7]	@ zero_extendqisi2
 485 00c6 10DC     		bgt	.L69
 486 00c8 144C     		ldr	r4, .L75+12
 487              	.LVL35:
 488              		.loc 1 159 0
 489 00ca 002B     		cmp	r3, #0
 490 00cc E6D1     		bne	.L73
 491              	.L61:
 492              		.loc 1 162 0
 493 00ce 0023     		movs	r3, #0
 494 00d0 2360     		str	r3, [r4]	@ float
 495              	.L51:
 496              		.loc 1 168 0
 497 00d2 019A     		ldr	r2, [sp, #4]
 498 00d4 3368     		ldr	r3, [r6]
 499 00d6 9A42     		cmp	r2, r3
 500 00d8 17D1     		bne	.L74
 501 00da 03B0     		add	sp, sp, #12
 502              		.cfi_remember_state
 503              		.cfi_def_cfa_offset 28
 504              		@ sp needed
 505 00dc BDEC028B 		vldm	sp!, {d8}
 506              		.cfi_restore 80
 507              		.cfi_restore 81
 508              		.cfi_def_cfa_offset 20
 509              	.LVL36:
 510 00e0 F0BD     		pop	{r4, r5, r6, r7, pc}
 511              	.LVL37:
 512              	.L72:
 513              		.cfi_restore_state
ARM GAS  C:\Users\ludo\AppData\Local\Temp\cca5ZgpD.s 			page 10


 514              		.loc 1 160 0
 515 00e2 4FF07E53 		mov	r3, #1065353216
 516 00e6 2360     		str	r3, [r4]	@ float
 517 00e8 F3E7     		b	.L51
 518              	.LVL38:
 519              	.L69:
 520              		.loc 1 154 0
 521 00ea 83F00103 		eor	r3, r3, #1
 522              		.loc 1 155 0
 523 00ee 07EE903A 		vmov	s15, r3	@ int
 524 00f2 0A4C     		ldr	r4, .L75+12
 525              	.LVL39:
 526              		.loc 1 154 0
 527 00f4 3B70     		strb	r3, [r7]
 528              		.loc 1 155 0
 529 00f6 F8EE677A 		vcvt.f32.u32	s15, s15
 530              		.loc 1 157 0
 531 00fa 4FF4FA60 		mov	r0, #2000
 532              		.loc 1 155 0
 533 00fe C4ED007A 		vstr.32	s15, [r4]
 534              		.loc 1 157 0
 535 0102 FFF7FEFF 		bl	chThdSleep
 536              	.LVL40:
 537 0106 3B78     		ldrb	r3, [r7]	@ zero_extendqisi2
 538 0108 C7E7     		b	.L59
 539              	.L74:
 540              		.loc 1 168 0
 541 010a FFF7FEFF 		bl	__stack_chk_fail
 542              	.LVL41:
 543              	.L76:
 544 010e 00BF     		.align	2
 545              	.L75:
 546 0110 00000000 		.word	__stack_chk_guard
 547 0114 0060EA46 		.word	1189765120
 548 0118 00000000 		.word	.LANCHOR1
 549 011c 00000000 		.word	.LANCHOR2
 550 0120 89888888 		.word	-2004318071
 551 0124 0050C347 		.word	1203982336
 552              		.cfi_endproc
 553              	.LFE290:
 554              		.size	sound_remote, .-sound_remote
 555              		.section	.text.processAudioData,"ax",%progbits
 556              		.align	1
 557              		.p2align 4,,15
 558              		.global	processAudioData
 559              		.syntax unified
 560              		.thumb
 561              		.thumb_func
 562              		.fpu fpv4-sp-d16
 563              		.type	processAudioData, %function
 564              	processAudioData:
 565              	.LFB291:
 566              		.loc 1 179 0
 567              		.cfi_startproc
 568              		@ args = 0, pretend = 0, frame = 8
 569              		@ frame_needed = 0, uses_anonymous_args = 0
 570              	.LVL42:
ARM GAS  C:\Users\ludo\AppData\Local\Temp\cca5ZgpD.s 			page 11


 571 0000 2DE9F04F 		push	{r4, r5, r6, r7, r8, r9, r10, fp, lr}
 572              		.cfi_def_cfa_offset 36
 573              		.cfi_offset 4, -36
 574              		.cfi_offset 5, -32
 575              		.cfi_offset 6, -28
 576              		.cfi_offset 7, -24
 577              		.cfi_offset 8, -20
 578              		.cfi_offset 9, -16
 579              		.cfi_offset 10, -12
 580              		.cfi_offset 11, -8
 581              		.cfi_offset 14, -4
 582 0004 5D4E     		ldr	r6, .L96
 583 0006 83B0     		sub	sp, sp, #12
 584              		.cfi_def_cfa_offset 48
 585              		.loc 1 179 0
 586 0008 3368     		ldr	r3, [r6]
 587 000a 0193     		str	r3, [sp, #4]
 588 000c 0546     		mov	r5, r0
 589 000e 8846     		mov	r8, r1
 590              		.loc 1 191 0
 591 0010 FFF7FEFF 		bl	get_stopAudio
 592              	.LVL43:
 593              		.loc 1 193 0
 594 0014 0028     		cmp	r0, #0
 595 0016 40F09B80 		bne	.L94
 596              	.LVL44:
 597              	.L78:
 598 001a 594F     		ldr	r7, .L96+4
 599 001c 3A88     		ldrh	r2, [r7]
 600              	.LBB6:
 601              		.loc 1 200 0 discriminator 1
 602 001e B8F1000F 		cmp	r8, #0
 603 0022 00F09D80 		beq	.L79
 604 0026 DFF86491 		ldr	r9, .L96+16
 605 002a DFF864E1 		ldr	lr, .L96+20
 606 002e 5549     		ldr	r1, .L96+8
 607 0030 DFF860C1 		ldr	ip, .L96+24
 608              		.loc 1 209 0
 609 0034 DFED547A 		vldr.32	s15, .L96+12
 610              		.loc 1 200 0
 611 0038 0024     		movs	r4, #0
 612 003a 04E0     		b	.L82
 613              	.LVL45:
 614              	.L80:
 615              		.loc 1 200 0 is_stmt 0 discriminator 2
 616 003c 0434     		adds	r4, r4, #4
 617              	.LVL46:
 618 003e A4B2     		uxth	r4, r4
 619              	.LVL47:
 620 0040 A045     		cmp	r8, r4
 621 0042 40F29780 		bls	.L95
 622              	.LVL48:
 623              	.L82:
 624              		.loc 1 202 0 is_stmt 1
 625 0046 35F91430 		ldrsh	r3, [r5, r4, lsl #1]
 626 004a 07EE103A 		vmov	s14, r3	@ int
 627 004e 9000     		lsls	r0, r2, #2
ARM GAS  C:\Users\ludo\AppData\Local\Temp\cca5ZgpD.s 			page 12


 628 0050 B8EEC77A 		vcvt.f32.s32	s14, s14
 629 0054 09EB000A 		add	r10, r9, r0
 630              		.loc 1 203 0
 631 0058 05EB4403 		add	r3, r5, r4, lsl #1
 632              		.loc 1 202 0
 633 005c 8AED007A 		vstr.32	s14, [r10]
 634              		.loc 1 203 0
 635 0060 B3F902A0 		ldrsh	r10, [r3, #2]
 636 0064 07EE10AA 		vmov	s14, r10	@ int
 637 0068 B8EEC77A 		vcvt.f32.s32	s14, s14
 638 006c 0EEB000A 		add	r10, lr, r0
 639 0070 8AED007A 		vstr.32	s14, [r10]
 640              		.loc 1 204 0
 641 0074 B3F904A0 		ldrsh	r10, [r3, #4]
 642 0078 07EE10AA 		vmov	s14, r10	@ int
 643 007c B8EEC77A 		vcvt.f32.s32	s14, s14
 644 0080 01EB000A 		add	r10, r1, r0
 645 0084 8AED007A 		vstr.32	s14, [r10]
 646              		.loc 1 205 0
 647 0088 B3F90630 		ldrsh	r3, [r3, #6]
 648 008c 07EE103A 		vmov	s14, r3	@ int
 649              		.loc 1 209 0
 650 0090 531C     		adds	r3, r2, #1
 651 0092 9BB2     		uxth	r3, r3
 652              		.loc 1 205 0
 653 0094 B8EEC77A 		vcvt.f32.s32	s14, s14
 654              		.loc 1 214 0
 655 0098 0232     		adds	r2, r2, #2
 656              		.loc 1 209 0
 657 009a 9B00     		lsls	r3, r3, #2
 658              		.loc 1 205 0
 659 009c 6044     		add	r0, r0, ip
 660              		.loc 1 214 0
 661 009e 92B2     		uxth	r2, r2
 662              		.loc 1 205 0
 663 00a0 80ED007A 		vstr.32	s14, [r0]
 664              		.loc 1 209 0
 665 00a4 09EB030B 		add	fp, r9, r3
 666              		.loc 1 210 0
 667 00a8 0EEB030A 		add	r10, lr, r3
 668              		.loc 1 211 0
 669 00ac C818     		adds	r0, r1, r3
 670              		.loc 1 217 0
 671 00ae B2F5006F 		cmp	r2, #2048
 672              		.loc 1 212 0
 673 00b2 6344     		add	r3, r3, ip
 674              		.loc 1 209 0
 675 00b4 CBED007A 		vstr.32	s15, [fp]
 676              		.loc 1 210 0
 677 00b8 CAED007A 		vstr.32	s15, [r10]
 678              		.loc 1 211 0
 679 00bc C0ED007A 		vstr.32	s15, [r0]
 680              		.loc 1 212 0
 681 00c0 C3ED007A 		vstr.32	s15, [r3]
 682              		.loc 1 217 0
 683 00c4 BAD3     		bcc	.L80
 684 00c6 3A80     		strh	r2, [r7]	@ movhi
ARM GAS  C:\Users\ludo\AppData\Local\Temp\cca5ZgpD.s 			page 13


 685              	.LVL49:
 686              	.L81:
 687              	.LBE6:
 688              		.loc 1 229 0
 689 00c8 3049     		ldr	r1, .L96+16
 690 00ca 4FF48060 		mov	r0, #1024
 691 00ce FFF7FEFF 		bl	doFFT_optimized
 692              	.LVL50:
 693              		.loc 1 230 0
 694 00d2 2F49     		ldr	r1, .L96+20
 695 00d4 4FF48060 		mov	r0, #1024
 696 00d8 FFF7FEFF 		bl	doFFT_optimized
 697              	.LVL51:
 698              		.loc 1 231 0
 699 00dc 2D49     		ldr	r1, .L96+24
 700 00de 4FF48060 		mov	r0, #1024
 701 00e2 FFF7FEFF 		bl	doFFT_optimized
 702              	.LVL52:
 703              		.loc 1 232 0
 704 00e6 2749     		ldr	r1, .L96+8
 705 00e8 4FF48060 		mov	r0, #1024
 706 00ec FFF7FEFF 		bl	doFFT_optimized
 707              	.LVL53:
 708              		.loc 1 241 0
 709 00f0 4FF48062 		mov	r2, #1024
 710 00f4 2849     		ldr	r1, .L96+28
 711 00f6 2548     		ldr	r0, .L96+16
 712 00f8 FFF7FEFF 		bl	arm_cmplx_mag_f32
 713              	.LVL54:
 714              		.loc 1 242 0
 715 00fc 4FF48062 		mov	r2, #1024
 716 0100 2649     		ldr	r1, .L96+32
 717 0102 2348     		ldr	r0, .L96+20
 718 0104 FFF7FEFF 		bl	arm_cmplx_mag_f32
 719              	.LVL55:
 720              		.loc 1 243 0
 721 0108 4FF48062 		mov	r2, #1024
 722 010c 2449     		ldr	r1, .L96+36
 723 010e 2148     		ldr	r0, .L96+24
 724 0110 FFF7FEFF 		bl	arm_cmplx_mag_f32
 725              	.LVL56:
 726              		.loc 1 244 0
 727 0114 4FF48062 		mov	r2, #1024
 728 0118 2249     		ldr	r1, .L96+40
 729 011a 1A48     		ldr	r0, .L96+8
 730 011c FFF7FEFF 		bl	arm_cmplx_mag_f32
 731              	.LVL57:
 732              		.loc 1 247 0
 733 0120 214A     		ldr	r2, .L96+44
 734              		.loc 1 254 0
 735 0122 0198     		ldr	r0, [sp, #4]
 736              		.loc 1 247 0
 737 0124 1378     		ldrb	r3, [r2]	@ zero_extendqisi2
 738              		.loc 1 254 0
 739 0126 3168     		ldr	r1, [r6]
 740              		.loc 1 247 0
 741 0128 082B     		cmp	r3, #8
ARM GAS  C:\Users\ludo\AppData\Local\Temp\cca5ZgpD.s 			page 14


 742 012a 9ABF     		itte	ls
 743 012c 0133     		addls	r3, r3, #1
 744 012e DBB2     		uxtbls	r3, r3
 745 0130 0123     		movhi	r3, #1
 746              		.loc 1 252 0
 747 0132 1370     		strb	r3, [r2]
 748              		.loc 1 254 0
 749 0134 8842     		cmp	r0, r1
 750              		.loc 1 251 0
 751 0136 4FF00003 		mov	r3, #0
 752 013a 3B80     		strh	r3, [r7]	@ movhi
 753              		.loc 1 254 0
 754 013c 1CD1     		bne	.L93
 755 013e 194B     		ldr	r3, .L96+40
 756 0140 174A     		ldr	r2, .L96+36
 757 0142 1549     		ldr	r1, .L96+28
 758 0144 1548     		ldr	r0, .L96+32
 759              		.loc 1 256 0
 760 0146 03B0     		add	sp, sp, #12
 761              		.cfi_remember_state
 762              		.cfi_def_cfa_offset 36
 763              		@ sp needed
 764 0148 BDE8F04F 		pop	{r4, r5, r6, r7, r8, r9, r10, fp, lr}
 765              		.cfi_restore 14
 766              		.cfi_restore 11
 767              		.cfi_restore 10
 768              		.cfi_restore 9
 769              		.cfi_restore 8
 770              		.cfi_restore 7
 771              		.cfi_restore 6
 772              		.cfi_restore 5
 773              		.cfi_restore 4
 774              		.cfi_def_cfa_offset 0
 775              	.LVL58:
 776              		.loc 1 254 0
 777 014c FFF7FEBF 		b	sound_remote
 778              	.LVL59:
 779              	.L94:
 780              		.cfi_restore_state
 781              		.loc 1 194 0
 782 0150 164B     		ldr	r3, .L96+48
 783 0152 0022     		movs	r2, #0
 784 0154 1A60     		str	r2, [r3]	@ float
 785              		.loc 1 195 0
 786 0156 FFF7FEFF 		bl	clear_leds
 787              	.LVL60:
 788              		.loc 1 196 0
 789 015a FFF7FEFF 		bl	get_StopAudioSem
 790              	.LVL61:
 791 015e 5CE7     		b	.L78
 792              	.LVL62:
 793              	.L79:
 794              		.loc 1 222 0
 795 0160 B2F5006F 		cmp	r2, #2048
 796 0164 B0D2     		bcs	.L81
 797              	.LVL63:
 798              	.L77:
ARM GAS  C:\Users\ludo\AppData\Local\Temp\cca5ZgpD.s 			page 15


 799              		.loc 1 256 0
 800 0166 019A     		ldr	r2, [sp, #4]
 801 0168 3368     		ldr	r3, [r6]
 802 016a 9A42     		cmp	r2, r3
 803 016c 04D1     		bne	.L93
 804 016e 03B0     		add	sp, sp, #12
 805              		.cfi_remember_state
 806              		.cfi_def_cfa_offset 36
 807              		@ sp needed
 808 0170 BDE8F08F 		pop	{r4, r5, r6, r7, r8, r9, r10, fp, pc}
 809              	.LVL64:
 810              	.L95:
 811              		.cfi_restore_state
 812 0174 3A80     		strh	r2, [r7]	@ movhi
 813 0176 F6E7     		b	.L77
 814              	.LVL65:
 815              	.L93:
 816 0178 FFF7FEFF 		bl	__stack_chk_fail
 817              	.LVL66:
 818              	.L97:
 819              		.align	2
 820              	.L96:
 821 017c 00000000 		.word	__stack_chk_guard
 822 0180 00000000 		.word	.LANCHOR3
 823 0184 00000000 		.word	micBack_cmplx_input
 824 0188 00000000 		.word	0
 825 018c 00000000 		.word	micRight_cmplx_input
 826 0190 00000000 		.word	micLeft_cmplx_input
 827 0194 00000000 		.word	micFront_cmplx_input
 828 0198 00000000 		.word	micRight_output
 829 019c 00000000 		.word	micLeft_output
 830 01a0 00000000 		.word	micFront_output
 831 01a4 00000000 		.word	micBack_output
 832 01a8 00000000 		.word	.LANCHOR4
 833 01ac 00000000 		.word	.LANCHOR2
 834              		.cfi_endproc
 835              	.LFE291:
 836              		.size	processAudioData, .-processAudioData
 837              		.section	.text.wait_send_to_computer,"ax",%progbits
 838              		.align	1
 839              		.p2align 4,,15
 840              		.global	wait_send_to_computer
 841              		.syntax unified
 842              		.thumb
 843              		.thumb_func
 844              		.fpu fpv4-sp-d16
 845              		.type	wait_send_to_computer, %function
 846              	wait_send_to_computer:
 847              	.LFB292:
 848              		.loc 1 259 0
 849              		.cfi_startproc
 850              		@ args = 0, pretend = 0, frame = 8
 851              		@ frame_needed = 0, uses_anonymous_args = 0
 852 0000 00B5     		push	{lr}
 853              		.cfi_def_cfa_offset 4
 854              		.cfi_offset 14, -4
 855 0002 084B     		ldr	r3, .L103
ARM GAS  C:\Users\ludo\AppData\Local\Temp\cca5ZgpD.s 			page 16


 856 0004 83B0     		sub	sp, sp, #12
 857              		.cfi_def_cfa_offset 16
 858              		.loc 1 259 0
 859 0006 1A68     		ldr	r2, [r3]
 860 0008 0192     		str	r2, [sp, #4]
 861              	.LVL67:
 862              	.LBB7:
 863              	.LBB8:
 864              		.file 2 "../lib/e-puck2_main-processor/ChibiOS//os/rt/include/chbsem.h"
 865              		.loc 2 143 0
 866 000a 019A     		ldr	r2, [sp, #4]
 867 000c 1B68     		ldr	r3, [r3]
 868 000e 9A42     		cmp	r2, r3
 869 0010 05D1     		bne	.L102
 870 0012 0548     		ldr	r0, .L103+4
 871              	.LBE8:
 872              	.LBE7:
 873              		.loc 1 261 0
 874 0014 03B0     		add	sp, sp, #12
 875              		.cfi_remember_state
 876              		.cfi_def_cfa_offset 4
 877              		@ sp needed
 878 0016 5DF804EB 		ldr	lr, [sp], #4
 879              		.cfi_restore 14
 880              		.cfi_def_cfa_offset 0
 881              	.LBB10:
 882              	.LBB9:
 883              		.loc 2 143 0
 884 001a FFF7FEBF 		b	chSemWait
 885              	.LVL68:
 886              	.L102:
 887              		.cfi_restore_state
 888 001e FFF7FEFF 		bl	__stack_chk_fail
 889              	.LVL69:
 890              	.L104:
 891 0022 00BF     		.align	2
 892              	.L103:
 893 0024 00000000 		.word	__stack_chk_guard
 894 0028 00000000 		.word	.LANCHOR5
 895              	.LBE9:
 896              	.LBE10:
 897              		.cfi_endproc
 898              	.LFE292:
 899              		.size	wait_send_to_computer, .-wait_send_to_computer
 900              		.section	.text.get_speed_coeff,"ax",%progbits
 901              		.align	1
 902              		.p2align 4,,15
 903              		.global	get_speed_coeff
 904              		.syntax unified
 905              		.thumb
 906              		.thumb_func
 907              		.fpu fpv4-sp-d16
 908              		.type	get_speed_coeff, %function
 909              	get_speed_coeff:
 910              	.LFB293:
 911              		.loc 1 263 0
 912              		.cfi_startproc
ARM GAS  C:\Users\ludo\AppData\Local\Temp\cca5ZgpD.s 			page 17


 913              		@ args = 0, pretend = 0, frame = 8
 914              		@ frame_needed = 0, uses_anonymous_args = 0
 915 0000 00B5     		push	{lr}
 916              		.cfi_def_cfa_offset 4
 917              		.cfi_offset 14, -4
 918 0002 084B     		ldr	r3, .L109
 919              		.loc 1 264 0
 920 0004 0849     		ldr	r1, .L109+4
 921              		.loc 1 263 0
 922 0006 1A68     		ldr	r2, [r3]
 923              		.loc 1 265 0
 924 0008 91ED000A 		vldr.32	s0, [r1]
 925              		.loc 1 263 0
 926 000c 83B0     		sub	sp, sp, #12
 927              		.cfi_def_cfa_offset 16
 928              		.loc 1 263 0
 929 000e 0192     		str	r2, [sp, #4]
 930              		.loc 1 265 0
 931 0010 019A     		ldr	r2, [sp, #4]
 932 0012 1B68     		ldr	r3, [r3]
 933 0014 9A42     		cmp	r2, r3
 934 0016 02D1     		bne	.L108
 935 0018 03B0     		add	sp, sp, #12
 936              		.cfi_remember_state
 937              		.cfi_def_cfa_offset 4
 938              		@ sp needed
 939 001a 5DF804FB 		ldr	pc, [sp], #4
 940              	.L108:
 941              		.cfi_restore_state
 942 001e FFF7FEFF 		bl	__stack_chk_fail
 943              	.LVL70:
 944              	.L110:
 945 0022 00BF     		.align	2
 946              	.L109:
 947 0024 00000000 		.word	__stack_chk_guard
 948 0028 00000000 		.word	.LANCHOR2
 949              		.cfi_endproc
 950              	.LFE293:
 951              		.size	get_speed_coeff, .-get_speed_coeff
 952              		.section	.text.get_direction,"ax",%progbits
 953              		.align	1
 954              		.p2align 4,,15
 955              		.global	get_direction
 956              		.syntax unified
 957              		.thumb
 958              		.thumb_func
 959              		.fpu fpv4-sp-d16
 960              		.type	get_direction, %function
 961              	get_direction:
 962              	.LFB294:
 963              		.loc 1 266 0
 964              		.cfi_startproc
 965              		@ args = 0, pretend = 0, frame = 8
 966              		@ frame_needed = 0, uses_anonymous_args = 0
 967 0000 00B5     		push	{lr}
 968              		.cfi_def_cfa_offset 4
 969              		.cfi_offset 14, -4
ARM GAS  C:\Users\ludo\AppData\Local\Temp\cca5ZgpD.s 			page 18


 970 0002 074B     		ldr	r3, .L115
 971              		.loc 1 267 0
 972 0004 0749     		ldr	r1, .L115+4
 973              		.loc 1 266 0
 974 0006 1A68     		ldr	r2, [r3]
 975              		.loc 1 268 0
 976 0008 0878     		ldrb	r0, [r1]	@ zero_extendqisi2
 977              		.loc 1 266 0
 978 000a 83B0     		sub	sp, sp, #12
 979              		.cfi_def_cfa_offset 16
 980              		.loc 1 266 0
 981 000c 0192     		str	r2, [sp, #4]
 982              		.loc 1 268 0
 983 000e 019A     		ldr	r2, [sp, #4]
 984 0010 1B68     		ldr	r3, [r3]
 985 0012 9A42     		cmp	r2, r3
 986 0014 02D1     		bne	.L114
 987 0016 03B0     		add	sp, sp, #12
 988              		.cfi_remember_state
 989              		.cfi_def_cfa_offset 4
 990              		@ sp needed
 991 0018 5DF804FB 		ldr	pc, [sp], #4
 992              	.L114:
 993              		.cfi_restore_state
 994 001c FFF7FEFF 		bl	__stack_chk_fail
 995              	.LVL71:
 996              	.L116:
 997              		.align	2
 998              	.L115:
 999 0020 00000000 		.word	__stack_chk_guard
 1000 0024 00000000 		.word	.LANCHOR0
 1001              		.cfi_endproc
 1002              	.LFE294:
 1003              		.size	get_direction, .-get_direction
 1004              		.section	.text.get_audio_buffer_ptr,"ax",%progbits
 1005              		.align	1
 1006              		.p2align 4,,15
 1007              		.global	get_audio_buffer_ptr
 1008              		.syntax unified
 1009              		.thumb
 1010              		.thumb_func
 1011              		.fpu fpv4-sp-d16
 1012              		.type	get_audio_buffer_ptr, %function
 1013              	get_audio_buffer_ptr:
 1014              	.LFB295:
 1015              		.loc 1 269 0
 1016              		.cfi_startproc
 1017              		@ args = 0, pretend = 0, frame = 8
 1018              		@ frame_needed = 0, uses_anonymous_args = 0
 1019              	.LVL72:
 1020 0000 00B5     		push	{lr}
 1021              		.cfi_def_cfa_offset 4
 1022              		.cfi_offset 14, -4
 1023 0002 164B     		ldr	r3, .L130
 1024 0004 83B0     		sub	sp, sp, #12
 1025              		.cfi_def_cfa_offset 16
 1026              		.loc 1 269 0
ARM GAS  C:\Users\ludo\AppData\Local\Temp\cca5ZgpD.s 			page 19


 1027 0006 1A68     		ldr	r2, [r3]
 1028 0008 0192     		str	r2, [sp, #4]
 1029              		.loc 1 270 0
 1030 000a 88B1     		cbz	r0, .L120
 1031              		.loc 1 273 0
 1032 000c 0128     		cmp	r0, #1
 1033 000e 17D0     		beq	.L121
 1034              		.loc 1 276 0
 1035 0010 0228     		cmp	r0, #2
 1036 0012 19D0     		beq	.L122
 1037              		.loc 1 279 0
 1038 0014 0328     		cmp	r0, #3
 1039 0016 15D0     		beq	.L123
 1040              		.loc 1 282 0
 1041 0018 0428     		cmp	r0, #4
 1042 001a 17D0     		beq	.L124
 1043              		.loc 1 285 0
 1044 001c 0528     		cmp	r0, #5
 1045 001e 17D0     		beq	.L125
 1046              		.loc 1 288 0
 1047 0020 0628     		cmp	r0, #6
 1048 0022 17D0     		beq	.L126
 1049              		.loc 1 295 0
 1050 0024 0E4A     		ldr	r2, .L130+4
 1051              		.loc 1 291 0
 1052 0026 0728     		cmp	r0, #7
 1053              		.loc 1 295 0
 1054 0028 0CBF     		ite	eq
 1055 002a 1046     		moveq	r0, r2
 1056              	.LVL73:
 1057 002c 0020     		movne	r0, #0
 1058 002e 00E0     		b	.L117
 1059              	.LVL74:
 1060              	.L120:
 1061              		.loc 1 271 0
 1062 0030 0C48     		ldr	r0, .L130+8
 1063              	.LVL75:
 1064              	.L117:
 1065              		.loc 1 297 0
 1066 0032 019A     		ldr	r2, [sp, #4]
 1067 0034 1B68     		ldr	r3, [r3]
 1068 0036 9A42     		cmp	r2, r3
 1069 0038 0ED1     		bne	.L129
 1070 003a 03B0     		add	sp, sp, #12
 1071              		.cfi_remember_state
 1072              		.cfi_def_cfa_offset 4
 1073              		@ sp needed
 1074 003c 5DF804FB 		ldr	pc, [sp], #4
 1075              	.LVL76:
 1076              	.L121:
 1077              		.cfi_restore_state
 1078              		.loc 1 274 0
 1079 0040 0948     		ldr	r0, .L130+12
 1080              	.LVL77:
 1081 0042 F6E7     		b	.L117
 1082              	.LVL78:
 1083              	.L123:
ARM GAS  C:\Users\ludo\AppData\Local\Temp\cca5ZgpD.s 			page 20


 1084              		.loc 1 280 0
 1085 0044 0948     		ldr	r0, .L130+16
 1086              	.LVL79:
 1087 0046 F4E7     		b	.L117
 1088              	.LVL80:
 1089              	.L122:
 1090              		.loc 1 277 0
 1091 0048 0948     		ldr	r0, .L130+20
 1092              	.LVL81:
 1093 004a F2E7     		b	.L117
 1094              	.LVL82:
 1095              	.L124:
 1096              		.loc 1 283 0
 1097 004c 0948     		ldr	r0, .L130+24
 1098              	.LVL83:
 1099 004e F0E7     		b	.L117
 1100              	.LVL84:
 1101              	.L125:
 1102              		.loc 1 286 0
 1103 0050 0948     		ldr	r0, .L130+28
 1104              	.LVL85:
 1105 0052 EEE7     		b	.L117
 1106              	.LVL86:
 1107              	.L126:
 1108              		.loc 1 289 0
 1109 0054 0948     		ldr	r0, .L130+32
 1110              	.LVL87:
 1111 0056 ECE7     		b	.L117
 1112              	.L129:
 1113              		.loc 1 297 0
 1114 0058 FFF7FEFF 		bl	__stack_chk_fail
 1115              	.LVL88:
 1116              	.L131:
 1117              		.align	2
 1118              	.L130:
 1119 005c 00000000 		.word	__stack_chk_guard
 1120 0060 00000000 		.word	micBack_output
 1121 0064 00000000 		.word	micLeft_cmplx_input
 1122 0068 00000000 		.word	micRight_cmplx_input
 1123 006c 00000000 		.word	micBack_cmplx_input
 1124 0070 00000000 		.word	micFront_cmplx_input
 1125 0074 00000000 		.word	micLeft_output
 1126 0078 00000000 		.word	micRight_output
 1127 007c 00000000 		.word	micFront_output
 1128              		.cfi_endproc
 1129              	.LFE295:
 1130              		.size	get_audio_buffer_ptr, .-get_audio_buffer_ptr
 1131              		.section	.bss.allumer.14187,"aw",%nobits
 1132              		.set	.LANCHOR1,. + 0
 1133              		.type	allumer.14187, %object
 1134              		.size	allumer.14187, 1
 1135              	allumer.14187:
 1136 0000 00       		.space	1
 1137              		.section	.bss.direction,"aw",%nobits
 1138              		.set	.LANCHOR0,. + 0
 1139              		.type	direction, %object
 1140              		.size	direction, 1
ARM GAS  C:\Users\ludo\AppData\Local\Temp\cca5ZgpD.s 			page 21


 1141              	direction:
 1142 0000 00       		.space	1
 1143              		.section	.bss.micBack_cmplx_input,"aw",%nobits
 1144              		.align	2
 1145              		.type	micBack_cmplx_input, %object
 1146              		.size	micBack_cmplx_input, 8192
 1147              	micBack_cmplx_input:
 1148 0000 00000000 		.space	8192
 1148      00000000 
 1148      00000000 
 1148      00000000 
 1148      00000000 
 1149              		.section	.bss.micBack_output,"aw",%nobits
 1150              		.align	2
 1151              		.type	micBack_output, %object
 1152              		.size	micBack_output, 4096
 1153              	micBack_output:
 1154 0000 00000000 		.space	4096
 1154      00000000 
 1154      00000000 
 1154      00000000 
 1154      00000000 
 1155              		.section	.bss.micFront_cmplx_input,"aw",%nobits
 1156              		.align	2
 1157              		.type	micFront_cmplx_input, %object
 1158              		.size	micFront_cmplx_input, 8192
 1159              	micFront_cmplx_input:
 1160 0000 00000000 		.space	8192
 1160      00000000 
 1160      00000000 
 1160      00000000 
 1160      00000000 
 1161              		.section	.bss.micFront_output,"aw",%nobits
 1162              		.align	2
 1163              		.type	micFront_output, %object
 1164              		.size	micFront_output, 4096
 1165              	micFront_output:
 1166 0000 00000000 		.space	4096
 1166      00000000 
 1166      00000000 
 1166      00000000 
 1166      00000000 
 1167              		.section	.bss.micLeft_cmplx_input,"aw",%nobits
 1168              		.align	2
 1169              		.type	micLeft_cmplx_input, %object
 1170              		.size	micLeft_cmplx_input, 8192
 1171              	micLeft_cmplx_input:
 1172 0000 00000000 		.space	8192
 1172      00000000 
 1172      00000000 
 1172      00000000 
 1172      00000000 
 1173              		.section	.bss.micLeft_output,"aw",%nobits
 1174              		.align	2
 1175              		.type	micLeft_output, %object
 1176              		.size	micLeft_output, 4096
 1177              	micLeft_output:
ARM GAS  C:\Users\ludo\AppData\Local\Temp\cca5ZgpD.s 			page 22


 1178 0000 00000000 		.space	4096
 1178      00000000 
 1178      00000000 
 1178      00000000 
 1178      00000000 
 1179              		.section	.bss.micRight_cmplx_input,"aw",%nobits
 1180              		.align	2
 1181              		.type	micRight_cmplx_input, %object
 1182              		.size	micRight_cmplx_input, 8192
 1183              	micRight_cmplx_input:
 1184 0000 00000000 		.space	8192
 1184      00000000 
 1184      00000000 
 1184      00000000 
 1184      00000000 
 1185              		.section	.bss.micRight_output,"aw",%nobits
 1186              		.align	2
 1187              		.type	micRight_output, %object
 1188              		.size	micRight_output, 4096
 1189              	micRight_output:
 1190 0000 00000000 		.space	4096
 1190      00000000 
 1190      00000000 
 1190      00000000 
 1190      00000000 
 1191              		.section	.bss.mustSend.14197,"aw",%nobits
 1192              		.set	.LANCHOR4,. + 0
 1193              		.type	mustSend.14197, %object
 1194              		.size	mustSend.14197, 1
 1195              	mustSend.14197:
 1196 0000 00       		.space	1
 1197              		.section	.bss.nb_samples.14196,"aw",%nobits
 1198              		.align	1
 1199              		.set	.LANCHOR3,. + 0
 1200              		.type	nb_samples.14196, %object
 1201              		.size	nb_samples.14196, 2
 1202              	nb_samples.14196:
 1203 0000 0000     		.space	2
 1204              		.section	.bss.speed_coeff,"aw",%nobits
 1205              		.align	2
 1206              		.set	.LANCHOR2,. + 0
 1207              		.type	speed_coeff, %object
 1208              		.size	speed_coeff, 4
 1209              	speed_coeff:
 1210 0000 00000000 		.space	4
 1211              		.section	.data.sendToComputer_sem,"aw",%progbits
 1212              		.align	2
 1213              		.set	.LANCHOR5,. + 0
 1214              		.type	sendToComputer_sem, %object
 1215              		.size	sendToComputer_sem, 12
 1216              	sendToComputer_sem:
 1217 0000 00000000 		.word	sendToComputer_sem
 1218 0004 00000000 		.word	sendToComputer_sem
 1219 0008 00000000 		.word	0
 1220              		.text
 1221              	.Letext0:
 1222              		.file 3 "c:\\users\\ludo\\documents\\eclipse_e-puck2\\tools\\gcc-arm-none-eabi-7-2017-q4-major-win
ARM GAS  C:\Users\ludo\AppData\Local\Temp\cca5ZgpD.s 			page 23


 1223              		.file 4 "c:\\users\\ludo\\documents\\eclipse_e-puck2\\tools\\gcc-arm-none-eabi-7-2017-q4-major-win
 1224              		.file 5 "c:\\users\\ludo\\documents\\eclipse_e-puck2\\tools\\gcc-arm-none-eabi-7-2017-q4-major-win
 1225              		.file 6 "../lib/e-puck2_main-processor/ChibiOS//os/rt/ports/ARMCMx/compilers/GCC/chtypes.h"
 1226              		.file 7 "../lib/e-puck2_main-processor/ChibiOS//os/rt/include/chsystypes.h"
 1227              		.file 8 "../lib/e-puck2_main-processor/ChibiOS//os/rt/include/chschd.h"
 1228              		.file 9 "../lib/e-puck2_main-processor/ChibiOS//os/ext/CMSIS/include/core_cm4.h"
 1229              		.file 10 "../lib/e-puck2_main-processor/ChibiOS//os/ext/CMSIS/ST/system_stm32f4xx.h"
 1230              		.file 11 "../lib/e-puck2_main-processor/ChibiOS//os/ext/CMSIS/ST/stm32f407xx.h"
 1231              		.file 12 "../lib/e-puck2_main-processor/ChibiOS//os/rt/ports/ARMCMx/chcore.h"
 1232              		.file 13 "../lib/e-puck2_main-processor/ChibiOS//os/rt/ports/ARMCMx/chcore_v7m.h"
 1233              		.file 14 "../lib/e-puck2_main-processor/ChibiOS//os/rt/include/chdebug.h"
 1234              		.file 15 "../lib/e-puck2_main-processor/ChibiOS//os/rt/include/chtm.h"
 1235              		.file 16 "../lib/e-puck2_main-processor/ChibiOS//os/rt/include/chstats.h"
 1236              		.file 17 "../lib/e-puck2_main-processor/ChibiOS//os/rt/include/chsem.h"
 1237              		.file 18 "../lib/e-puck2_main-processor/ChibiOS//os/rt/include/chmtx.h"
 1238              		.file 19 "../lib/e-puck2_main-processor/ChibiOS//os/rt/include/chregistry.h"
 1239              		.file 20 "../lib/e-puck2_main-processor/ChibiOS//os/rt/include/chevents.h"
 1240              		.file 21 "../lib/e-puck2_main-processor/ChibiOS//os/rt/include/chqueues.h"
 1241              		.file 22 "../lib/e-puck2_main-processor/ChibiOS//os/hal/ports/STM32/STM32F4xx/stm32_dma.h"
 1242              		.file 23 "../lib/e-puck2_main-processor/ChibiOS//os/hal/include/hal_ioblock.h"
 1243              		.file 24 "../lib/e-puck2_main-processor/ChibiOS//os/hal/ports/STM32/LLD/GPIOv2/pal_lld.h"
 1244              		.file 25 "../lib/e-puck2_main-processor/ChibiOS//os/hal/include/adc.h"
 1245              		.file 26 "../lib/e-puck2_main-processor/ChibiOS//os/hal/ports/STM32/STM32F4xx/adc_lld.h"
 1246              		.file 27 "../lib/e-puck2_main-processor/ChibiOS//os/hal/include/can.h"
 1247              		.file 28 "../lib/e-puck2_main-processor/ChibiOS//os/hal/ports/STM32/LLD/can_lld.h"
 1248              		.file 29 "../lib/e-puck2_main-processor/ChibiOS//os/hal/include/dac.h"
 1249              		.file 30 "../lib/e-puck2_main-processor/ChibiOS//os/hal/ports/STM32/LLD/DACv1/dac_lld.h"
 1250              		.file 31 "../lib/e-puck2_main-processor/ChibiOS//os/hal/include/ext.h"
 1251              		.file 32 "../lib/e-puck2_main-processor/ChibiOS//os/hal/ports/STM32/LLD/ext_lld.h"
 1252              		.file 33 "../lib/e-puck2_main-processor/ChibiOS//os/hal/include/gpt.h"
 1253              		.file 34 "../lib/e-puck2_main-processor/ChibiOS//os/hal/ports/STM32/LLD/TIMv1/gpt_lld.h"
 1254              		.file 35 "../lib/e-puck2_main-processor/ChibiOS//os/hal/ports/STM32/LLD/TIMv1/stm32_tim.h"
 1255              		.file 36 "../lib/e-puck2_main-processor/ChibiOS//os/hal/include/i2c.h"
 1256              		.file 37 "../lib/e-puck2_main-processor/ChibiOS//os/hal/ports/STM32/LLD/I2Cv1/i2c_lld.h"
 1257              		.file 38 "../lib/e-puck2_main-processor/ChibiOS//os/hal/include/i2s.h"
 1258              		.file 39 "../lib/e-puck2_main-processor/ChibiOS//os/hal/ports/STM32/LLD/SPIv1/i2s_lld.h"
 1259              		.file 40 "../lib/e-puck2_main-processor/ChibiOS//os/hal/include/pwm.h"
 1260              		.file 41 "../lib/e-puck2_main-processor/ChibiOS//os/hal/ports/STM32/LLD/TIMv1/pwm_lld.h"
 1261              		.file 42 "../lib/e-puck2_main-processor/ChibiOS//os/hal/include/serial.h"
 1262              		.file 43 "../lib/e-puck2_main-processor/ChibiOS//os/hal/ports/STM32/LLD/USARTv1/serial_lld.h"
 1263              		.file 44 "../lib/e-puck2_main-processor/ChibiOS//os/hal/include/sdc.h"
 1264              		.file 45 "../lib/e-puck2_main-processor/ChibiOS//os/hal/ports/STM32/LLD/sdc_lld.h"
 1265              		.file 46 "../lib/e-puck2_main-processor/ChibiOS//os/hal/include/spi.h"
 1266              		.file 47 "../lib/e-puck2_main-processor/ChibiOS//os/hal/ports/STM32/LLD/SPIv1/spi_lld.h"
 1267              		.file 48 "../lib/e-puck2_main-processor/ChibiOS//os/hal/include/usb.h"
 1268              		.file 49 "../lib/e-puck2_main-processor/ChibiOS//os/hal/ports/STM32/LLD/OTGv1/usb_lld.h"
 1269              		.file 50 "../lib/e-puck2_main-processor/ChibiOS//os/hal/ports/STM32/LLD/OTGv1/stm32_otg.h"
 1270              		.file 51 "../lib/e-puck2_main-processor/ChibiOS_ext/os/hal/include/../ports/STM32/STM32F4xx/dcmi_l
 1271              		.file 52 "c:\\users\\ludo\\documents\\eclipse_e-puck2\\tools\\gcc-arm-none-eabi-7-2017-q4-major-wi
 1272              		.file 53 "c:\\users\\ludo\\documents\\eclipse_e-puck2\\tools\\gcc-arm-none-eabi-7-2017-q4-major-wi
 1273              		.file 54 "c:\\users\\ludo\\documents\\eclipse_e-puck2\\tools\\gcc-arm-none-eabi-7-2017-q4-major-wi
 1274              		.file 55 "../lib/e-puck2_main-processor/src/msgbus/messagebus.h"
 1275              		.file 56 "c:\\users\\ludo\\documents\\eclipse_e-puck2\\tools\\gcc-arm-none-eabi-7-2017-q4-major-wi
 1276              		.file 57 "c:\\users\\ludo\\documents\\eclipse_e-puck2\\tools\\gcc-arm-none-eabi-7-2017-q4-major-wi
 1277              		.file 58 "../lib/e-puck2_main-processor/src/parameter/parameter.h"
 1278              		.file 59 "./main.h"
 1279              		.file 60 "./audio_processing.h"
ARM GAS  C:\Users\ludo\AppData\Local\Temp\cca5ZgpD.s 			page 24


 1280              		.file 61 "c:\\users\\ludo\\documents\\eclipse_e-puck2\\tools\\gcc-arm-none-eabi-7-2017-q4-major-wi
 1281              		.file 62 "../lib/e-puck2_main-processor/src/leds.h"
 1282              		.file 63 "gestionMouvements.h"
 1283              		.file 64 "./fft.h"
 1284              		.file 65 "../lib/e-puck2_main-processor/ChibiOS//os/ext/CMSIS/include/arm_math.h"
 1285              		.file 66 "../lib/e-puck2_main-processor/ChibiOS//os/rt/include/chthreads.h"