ARM GAS  /tmp/ccnNAC6Q.s 			page 1


   1              		.cpu cortex-m4
   2              		.eabi_attribute 27, 1
   3              		.eabi_attribute 28, 1
   4              		.eabi_attribute 20, 1
   5              		.eabi_attribute 21, 1
   6              		.eabi_attribute 23, 3
   7              		.eabi_attribute 24, 1
   8              		.eabi_attribute 25, 1
   9              		.eabi_attribute 26, 1
  10              		.eabi_attribute 30, 2
  11              		.eabi_attribute 34, 1
  12              		.eabi_attribute 18, 4
  13              		.file	"detecteurinfra.c"
  14              		.text
  15              	.Ltext0:
  16              		.cfi_sections	.debug_frame
  17              		.section	.text.DetecteurDistance,"ax",%progbits
  18              		.align	1
  19              		.p2align 4,,15
  20              		.syntax unified
  21              		.thumb
  22              		.thumb_func
  23              		.fpu fpv4-sp-d16
  24              		.type	DetecteurDistance, %function
  25              	DetecteurDistance:
  26              	.LFB260:
  27              		.file 1 "detecteurinfra.c"
  28              		.loc 1 21 0
  29              		.cfi_startproc
  30              		@ args = 0, pretend = 0, frame = 16
  31              		@ frame_needed = 0, uses_anonymous_args = 0
  32              	.LVL0:
  33 0000 10B5     		push	{r4, lr}
  34              		.cfi_def_cfa_offset 8
  35              		.cfi_offset 4, -8
  36              		.cfi_offset 14, -4
  37 0002 2DED028B 		vpush.64	{d8}
  38              		.cfi_def_cfa_offset 16
  39              		.cfi_offset 80, -16
  40              		.cfi_offset 81, -12
  41              	.LBB5:
  42              	.LBB6:
  43              		.file 2 "../lib/e-puck2_main-processor/ChibiOS//os/rt/include/chregistry.h"
  44              		.loc 2 135 0
  45 0006 1D4A     		ldr	r2, .L9
  46              	.LBE6:
  47              	.LBE5:
  48              		.loc 1 21 0
  49 0008 1D4B     		ldr	r3, .L9+4
  50              	.LBB9:
  51              	.LBB7:
  52              		.loc 2 135 0
  53 000a 9269     		ldr	r2, [r2, #24]
  54 000c 1D49     		ldr	r1, .L9+8
  55              	.LBE7:
  56              	.LBE9:
  57              		.loc 1 21 0
ARM GAS  /tmp/ccnNAC6Q.s 			page 2


  58 000e 1B68     		ldr	r3, [r3]
  59              	.LBB10:
  60              		.loc 1 36 0
  61 0010 9FED1D8A 		vldr.32	s16, .L9+12
  62              	.LBE10:
  63              	.LBB11:
  64              	.LBB8:
  65              		.loc 2 135 0
  66 0014 9161     		str	r1, [r2, #24]
  67              	.LBE8:
  68              	.LBE11:
  69              		.loc 1 21 0
  70 0016 84B0     		sub	sp, sp, #16
  71              		.cfi_def_cfa_offset 32
  72              		.loc 1 21 0
  73 0018 0393     		str	r3, [sp, #12]
  74              	.LVL1:
  75              	.L2:
  76              	.LBB12:
  77              		.loc 1 28 0
  78 001a FFF7FEFF 		bl	VL53L0X_get_dist_mm
  79              	.LVL2:
  80 001e 0446     		mov	r4, r0
  81              	.LVL3:
  82              		.loc 1 29 0
  83 0020 FFF7FEFF 		bl	get_speed_coeff
  84              	.LVL4:
  85              		.loc 1 30 0
  86 0024 362C     		cmp	r4, #54
  87 0026 04D8     		bhi	.L3
  88              		.loc 1 30 0 is_stmt 0 discriminator 1
  89 0028 B5EE400A 		vcmp.f32	s0, #0
  90 002c F1EE10FA 		vmrs	APSR_nzcv, FPSCR
  91 0030 18D1     		bne	.L8
  92              	.L3:
  93              		.loc 1 36 0 is_stmt 1
  94 0032 20EE080A 		vmul.f32	s0, s0, s16
  95              	.LVL5:
  96 0036 FDEEC07A 		vcvt.s32.f32	s15, s0
  97 003a 17EE900A 		vmov	r0, s15	@ int
  98 003e CDED017A 		vstr.32	s15, [sp, #4]	@ int
  99 0042 FFF7FEFF 		bl	left_motor_set_speed
 100              	.LVL6:
 101              		.loc 1 37 0
 102 0046 0198     		ldr	r0, [sp, #4]
 103 0048 FFF7FEFF 		bl	right_motor_set_speed
 104              	.LVL7:
 105              		.loc 1 28 0
 106 004c FFF7FEFF 		bl	VL53L0X_get_dist_mm
 107              	.LVL8:
 108 0050 0446     		mov	r4, r0
 109              	.LVL9:
 110              		.loc 1 29 0
 111 0052 FFF7FEFF 		bl	get_speed_coeff
 112              	.LVL10:
 113              		.loc 1 30 0
 114 0056 362C     		cmp	r4, #54
ARM GAS  /tmp/ccnNAC6Q.s 			page 3


 115 0058 EBD8     		bhi	.L3
 116 005a B5EE400A 		vcmp.f32	s0, #0
 117 005e F1EE10FA 		vmrs	APSR_nzcv, FPSCR
 118 0062 E6D0     		beq	.L3
 119              	.L8:
 120              		.loc 1 31 0
 121 0064 6FF06300 		mvn	r0, #99
 122 0068 FFF7FEFF 		bl	right_motor_set_speed
 123              	.LVL11:
 124              		.loc 1 32 0
 125 006c 6420     		movs	r0, #100
 126 006e FFF7FEFF 		bl	left_motor_set_speed
 127              	.LVL12:
 128              		.loc 1 34 0
 129 0072 40F6BE40 		movw	r0, #3262
 130 0076 FFF7FEFF 		bl	chThdSleep
 131              	.LVL13:
 132 007a CEE7     		b	.L2
 133              	.L10:
 134              		.align	2
 135              	.L9:
 136 007c 00000000 		.word	ch
 137 0080 00000000 		.word	__stack_chk_guard
 138 0084 00000000 		.word	.LANCHOR0
 139 0088 0000C842 		.word	1120403456
 140              	.LBE12:
 141              		.cfi_endproc
 142              	.LFE260:
 143              		.size	DetecteurDistance, .-DetecteurDistance
 144              		.section	.text.startDetecteur,"ax",%progbits
 145              		.align	1
 146              		.p2align 4,,15
 147              		.global	startDetecteur
 148              		.syntax unified
 149              		.thumb
 150              		.thumb_func
 151              		.fpu fpv4-sp-d16
 152              		.type	startDetecteur, %function
 153              	startDetecteur:
 154              	.LFB261:
 155              		.loc 1 56 0
 156              		.cfi_startproc
 157              		@ args = 0, pretend = 0, frame = 8
 158              		@ frame_needed = 0, uses_anonymous_args = 0
 159 0000 10B5     		push	{r4, lr}
 160              		.cfi_def_cfa_offset 8
 161              		.cfi_offset 4, -8
 162              		.cfi_offset 14, -4
 163 0002 0A4C     		ldr	r4, .L15
 164              		.loc 1 57 0
 165 0004 0A4B     		ldr	r3, .L15+4
 166              		.loc 1 56 0
 167 0006 2268     		ldr	r2, [r4]
 168              		.loc 1 57 0
 169 0008 0A48     		ldr	r0, .L15+8
 170              		.loc 1 56 0
 171 000a 84B0     		sub	sp, sp, #16
ARM GAS  /tmp/ccnNAC6Q.s 			page 4


 172              		.cfi_def_cfa_offset 24
 173              		.loc 1 57 0
 174 000c 4FF41E71 		mov	r1, #632
 175              		.loc 1 56 0
 176 0010 0392     		str	r2, [sp, #12]
 177              		.loc 1 57 0
 178 0012 0022     		movs	r2, #0
 179 0014 0092     		str	r2, [sp]
 180 0016 4022     		movs	r2, #64
 181 0018 FFF7FEFF 		bl	chThdCreateStatic
 182              	.LVL14:
 183              		.loc 1 59 0
 184 001c 039A     		ldr	r2, [sp, #12]
 185 001e 2368     		ldr	r3, [r4]
 186 0020 9A42     		cmp	r2, r3
 187 0022 01D1     		bne	.L14
 188 0024 04B0     		add	sp, sp, #16
 189              		.cfi_remember_state
 190              		.cfi_def_cfa_offset 8
 191              		@ sp needed
 192 0026 10BD     		pop	{r4, pc}
 193              	.L14:
 194              		.cfi_restore_state
 195 0028 FFF7FEFF 		bl	__stack_chk_fail
 196              	.LVL15:
 197              	.L16:
 198              		.align	2
 199              	.L15:
 200 002c 00000000 		.word	__stack_chk_guard
 201 0030 00000000 		.word	DetecteurDistance
 202 0034 00000000 		.word	.LANCHOR1
 203              		.cfi_endproc
 204              	.LFE261:
 205              		.size	startDetecteur, .-startDetecteur
 206              		.section	.bss.waDetecteurDistance,"aw",%nobits
 207              		.align	3
 208              		.set	.LANCHOR1,. + 0
 209              		.type	waDetecteurDistance, %object
 210              		.size	waDetecteurDistance, 632
 211              	waDetecteurDistance:
 212 0000 00000000 		.space	632
 212      00000000 
 212      00000000 
 212      00000000 
 212      00000000 
 213              		.section	.rodata.__FUNCTION__.11701,"a",%progbits
 214              		.align	2
 215              		.set	.LANCHOR0,. + 0
 216              		.type	__FUNCTION__.11701, %object
 217              		.size	__FUNCTION__.11701, 18
 218              	__FUNCTION__.11701:
 219 0000 44657465 		.ascii	"DetecteurDistance\000"
 219      63746575 
 219      72446973 
 219      74616E63 
 219      6500
 220              		.text
ARM GAS  /tmp/ccnNAC6Q.s 			page 5


 221              	.Letext0:
 222              		.file 3 "/home/user/Documents/Eclipse_e-puck2/Tools/gcc-arm-none-eabi-7-2017-q4-major/arm-none-eab
 223              		.file 4 "/home/user/Documents/Eclipse_e-puck2/Tools/gcc-arm-none-eabi-7-2017-q4-major/arm-none-eab
 224              		.file 5 "/home/user/Documents/Eclipse_e-puck2/Tools/gcc-arm-none-eabi-7-2017-q4-major/lib/gcc/arm-
 225              		.file 6 "/home/user/Documents/Eclipse_e-puck2/Tools/gcc-arm-none-eabi-7-2017-q4-major/arm-none-eab
 226              		.file 7 "/home/user/Documents/Eclipse_e-puck2/Tools/gcc-arm-none-eabi-7-2017-q4-major/arm-none-eab
 227              		.file 8 "/home/user/Documents/Eclipse_e-puck2/Tools/gcc-arm-none-eabi-7-2017-q4-major/arm-none-eab
 228              		.file 9 "../lib/e-puck2_main-processor/ChibiOS//os/rt/ports/ARMCMx/compilers/GCC/chtypes.h"
 229              		.file 10 "../lib/e-puck2_main-processor/ChibiOS//os/rt/include/chsystypes.h"
 230              		.file 11 "../lib/e-puck2_main-processor/ChibiOS//os/rt/include/chschd.h"
 231              		.file 12 "../lib/e-puck2_main-processor/ChibiOS//os/ext/CMSIS/include/core_cm4.h"
 232              		.file 13 "../lib/e-puck2_main-processor/ChibiOS//os/ext/CMSIS/ST/system_stm32f4xx.h"
 233              		.file 14 "../lib/e-puck2_main-processor/ChibiOS//os/ext/CMSIS/ST/stm32f407xx.h"
 234              		.file 15 "../lib/e-puck2_main-processor/ChibiOS//os/rt/ports/ARMCMx/chcore.h"
 235              		.file 16 "../lib/e-puck2_main-processor/ChibiOS//os/rt/ports/ARMCMx/chcore_v7m.h"
 236              		.file 17 "../lib/e-puck2_main-processor/ChibiOS//os/rt/include/chdebug.h"
 237              		.file 18 "../lib/e-puck2_main-processor/ChibiOS//os/rt/include/chtm.h"
 238              		.file 19 "../lib/e-puck2_main-processor/ChibiOS//os/rt/include/chstats.h"
 239              		.file 20 "../lib/e-puck2_main-processor/ChibiOS//os/rt/include/chsem.h"
 240              		.file 21 "../lib/e-puck2_main-processor/ChibiOS//os/rt/include/chmtx.h"
 241              		.file 22 "../lib/e-puck2_main-processor/ChibiOS//os/rt/include/chbsem.h"
 242              		.file 23 "../lib/e-puck2_main-processor/ChibiOS//os/rt/include/chevents.h"
 243              		.file 24 "../lib/e-puck2_main-processor/ChibiOS//os/rt/include/chqueues.h"
 244              		.file 25 "../lib/e-puck2_main-processor/ChibiOS//os/hal/ports/STM32/STM32F4xx/stm32_dma.h"
 245              		.file 26 "../lib/e-puck2_main-processor/ChibiOS//os/hal/include/hal_ioblock.h"
 246              		.file 27 "../lib/e-puck2_main-processor/ChibiOS//os/hal/ports/STM32/LLD/GPIOv2/pal_lld.h"
 247              		.file 28 "../lib/e-puck2_main-processor/ChibiOS//os/hal/include/adc.h"
 248              		.file 29 "../lib/e-puck2_main-processor/ChibiOS//os/hal/ports/STM32/STM32F4xx/adc_lld.h"
 249              		.file 30 "../lib/e-puck2_main-processor/ChibiOS//os/hal/include/can.h"
 250              		.file 31 "../lib/e-puck2_main-processor/ChibiOS//os/hal/ports/STM32/LLD/can_lld.h"
 251              		.file 32 "../lib/e-puck2_main-processor/ChibiOS//os/hal/include/dac.h"
 252              		.file 33 "../lib/e-puck2_main-processor/ChibiOS//os/hal/ports/STM32/LLD/DACv1/dac_lld.h"
 253              		.file 34 "../lib/e-puck2_main-processor/ChibiOS//os/hal/include/ext.h"
 254              		.file 35 "../lib/e-puck2_main-processor/ChibiOS//os/hal/ports/STM32/LLD/ext_lld.h"
 255              		.file 36 "../lib/e-puck2_main-processor/ChibiOS//os/hal/include/gpt.h"
 256              		.file 37 "../lib/e-puck2_main-processor/ChibiOS//os/hal/ports/STM32/LLD/TIMv1/gpt_lld.h"
 257              		.file 38 "../lib/e-puck2_main-processor/ChibiOS//os/hal/ports/STM32/LLD/TIMv1/stm32_tim.h"
 258              		.file 39 "../lib/e-puck2_main-processor/ChibiOS//os/hal/include/i2c.h"
 259              		.file 40 "../lib/e-puck2_main-processor/ChibiOS//os/hal/ports/STM32/LLD/I2Cv1/i2c_lld.h"
 260              		.file 41 "../lib/e-puck2_main-processor/ChibiOS//os/hal/include/i2s.h"
 261              		.file 42 "../lib/e-puck2_main-processor/ChibiOS//os/hal/ports/STM32/LLD/SPIv1/i2s_lld.h"
 262              		.file 43 "../lib/e-puck2_main-processor/ChibiOS//os/hal/include/pwm.h"
 263              		.file 44 "../lib/e-puck2_main-processor/ChibiOS//os/hal/ports/STM32/LLD/TIMv1/pwm_lld.h"
 264              		.file 45 "../lib/e-puck2_main-processor/ChibiOS//os/hal/include/serial.h"
 265              		.file 46 "../lib/e-puck2_main-processor/ChibiOS//os/hal/ports/STM32/LLD/USARTv1/serial_lld.h"
 266              		.file 47 "../lib/e-puck2_main-processor/ChibiOS//os/hal/include/sdc.h"
 267              		.file 48 "../lib/e-puck2_main-processor/ChibiOS//os/hal/ports/STM32/LLD/sdc_lld.h"
 268              		.file 49 "../lib/e-puck2_main-processor/ChibiOS//os/hal/include/spi.h"
 269              		.file 50 "../lib/e-puck2_main-processor/ChibiOS//os/hal/ports/STM32/LLD/SPIv1/spi_lld.h"
 270              		.file 51 "../lib/e-puck2_main-processor/ChibiOS//os/hal/include/usb.h"
 271              		.file 52 "../lib/e-puck2_main-processor/ChibiOS//os/hal/ports/STM32/LLD/OTGv1/usb_lld.h"
 272              		.file 53 "../lib/e-puck2_main-processor/ChibiOS//os/hal/ports/STM32/LLD/OTGv1/stm32_otg.h"
 273              		.file 54 "../lib/e-puck2_main-processor/ChibiOS//os/rt/include/chthreads.h"
 274              		.file 55 "../lib/e-puck2_main-processor/src/sensors/VL53L0X/VL53L0X.h"
 275              		.file 56 "./audio_processing.h"
 276              		.file 57 "../lib/e-puck2_main-processor/src/motors.h"