ARM GAS  C:\Users\ludo\AppData\Local\Temp\ccwVTd2U.s 			page 1


   1              		.cpu cortex-m4
   2              		.eabi_attribute 27, 1
   3              		.eabi_attribute 28, 1
   4              		.eabi_attribute 20, 1
   5              		.eabi_attribute 21, 1
   6              		.eabi_attribute 23, 3
   7              		.eabi_attribute 24, 1
   8              		.eabi_attribute 25, 1
   9              		.eabi_attribute 26, 1
  10              		.eabi_attribute 30, 2
  11              		.eabi_attribute 34, 1
  12              		.eabi_attribute 18, 4
  13              		.file	"main.c"
  14              		.text
  15              	.Ltext0:
  16              		.cfi_sections	.debug_frame
  17              		.section	.text.startup.main,"ax",%progbits
  18              		.align	1
  19              		.p2align 4,,15
  20              		.global	main
  21              		.syntax unified
  22              		.thumb
  23              		.thumb_func
  24              		.fpu fpv4-sp-d16
  25              		.type	main, %function
  26              	main:
  27              	.LFB260:
  28              		.file 1 "main.c"
  29              		.loc 1 32 0
  30              		.cfi_startproc
  31              		@ Volatile: function does not return.
  32              		@ args = 0, pretend = 0, frame = 8
  33              		@ frame_needed = 0, uses_anonymous_args = 0
  34 0000 00B5     		push	{lr}
  35              		.cfi_def_cfa_offset 4
  36              		.cfi_offset 14, -4
  37 0002 104B     		ldr	r3, .L6
  38 0004 83B0     		sub	sp, sp, #12
  39              		.cfi_def_cfa_offset 16
  40              		.loc 1 32 0
  41 0006 1B68     		ldr	r3, [r3]
  42 0008 0193     		str	r3, [sp, #4]
  43              		.loc 1 35 0
  44 000a FFF7FEFF 		bl	halInit
  45              	.LVL0:
  46              		.loc 1 36 0
  47 000e FFF7FEFF 		bl	chSysInit
  48              	.LVL1:
  49              		.loc 1 37 0
  50 0012 FFF7FEFF 		bl	mpu_init
  51              	.LVL2:
  52              	.LBB4:
  53              	.LBB5:
  54              		.loc 1 28 0
  55 0016 0C49     		ldr	r1, .L6+4
  56 0018 0C48     		ldr	r0, .L6+8
  57 001a FFF7FEFF 		bl	sdStart
ARM GAS  C:\Users\ludo\AppData\Local\Temp\ccwVTd2U.s 			page 2


  58              	.LVL3:
  59              	.LBE5:
  60              	.LBE4:
  61              		.loc 1 42 0
  62 001e FFF7FEFF 		bl	usb_start
  63              	.LVL4:
  64              		.loc 1 44 0
  65 0022 FFF7FEFF 		bl	motors_init
  66              	.LVL5:
  67              		.loc 1 45 0
  68 0026 FFF7FEFF 		bl	spi_comm_start
  69              	.LVL6:
  70              		.loc 1 49 0
  71 002a 0948     		ldr	r0, .L6+12
  72 002c FFF7FEFF 		bl	mic_start
  73              	.LVL7:
  74              		.loc 1 50 0
  75 0030 FFF7FEFF 		bl	VL53L0X_start
  76              	.LVL8:
  77              		.loc 1 51 0
  78 0034 FFF7FEFF 		bl	startDetecteur
  79              	.LVL9:
  80              	.L2:
  81              		.loc 1 56 0 discriminator 1
  82 0038 FFF7FEFF 		bl	wait_send_to_computer
  83              	.LVL10:
  84              		.loc 1 57 0 discriminator 1
  85 003c 6420     		movs	r0, #100
  86 003e FFF7FEFF 		bl	chThdSleep
  87              	.LVL11:
  88 0042 F9E7     		b	.L2
  89              	.L7:
  90              		.align	2
  91              	.L6:
  92 0044 00000000 		.word	__stack_chk_guard
  93 0048 00000000 		.word	.LANCHOR0
  94 004c 00000000 		.word	SD3
  95 0050 00000000 		.word	processAudioData
  96              		.cfi_endproc
  97              	.LFE260:
  98              		.size	main, .-main
  99              		.section	.text.__stack_chk_fail,"ax",%progbits
 100              		.align	1
 101              		.p2align 4,,15
 102              		.global	__stack_chk_fail
 103              		.syntax unified
 104              		.thumb
 105              		.thumb_func
 106              		.fpu fpv4-sp-d16
 107              		.type	__stack_chk_fail, %function
 108              	__stack_chk_fail:
 109              	.LFB261:
 110              		.loc 1 67 0
 111              		.cfi_startproc
 112              		@ args = 0, pretend = 0, frame = 8
 113              		@ frame_needed = 0, uses_anonymous_args = 0
 114 0000 00B5     		push	{lr}
ARM GAS  C:\Users\ludo\AppData\Local\Temp\ccwVTd2U.s 			page 3


 115              		.cfi_def_cfa_offset 4
 116              		.cfi_offset 14, -4
 117 0002 084B     		ldr	r3, .L13
 118 0004 83B0     		sub	sp, sp, #12
 119              		.cfi_def_cfa_offset 16
 120              		.loc 1 67 0
 121 0006 1A68     		ldr	r2, [r3]
 122 0008 0192     		str	r2, [sp, #4]
 123              		.loc 1 68 0
 124 000a 019A     		ldr	r2, [sp, #4]
 125 000c 1B68     		ldr	r3, [r3]
 126 000e 9A42     		cmp	r2, r3
 127 0010 05D1     		bne	.L12
 128 0012 0548     		ldr	r0, .L13+4
 129              		.loc 1 69 0
 130 0014 03B0     		add	sp, sp, #12
 131              		.cfi_remember_state
 132              		.cfi_def_cfa_offset 4
 133              		@ sp needed
 134 0016 5DF804EB 		ldr	lr, [sp], #4
 135              		.cfi_restore 14
 136              		.cfi_def_cfa_offset 0
 137              		.loc 1 68 0
 138 001a FFF7FEBF 		b	chSysHalt
 139              	.LVL12:
 140              	.L12:
 141              		.cfi_restore_state
 142 001e FFF7FEFF 		bl	__stack_chk_fail
 143              	.LVL13:
 144              	.L14:
 145 0022 00BF     		.align	2
 146              	.L13:
 147 0024 00000000 		.word	__stack_chk_guard
 148 0028 00000000 		.word	.LC0
 149              		.cfi_endproc
 150              	.LFE261:
 151              		.size	__stack_chk_fail, .-__stack_chk_fail
 152              		.global	__stack_chk_guard
 153              		.section	.data.__stack_chk_guard,"aw",%progbits
 154              		.align	2
 155              		.type	__stack_chk_guard, %object
 156              		.size	__stack_chk_guard, 4
 157              	__stack_chk_guard:
 158 0000 96E3DEE2 		.word	-488709226
 159              		.section	.data.ser_cfg.12912,"aw",%progbits
 160              		.align	2
 161              		.set	.LANCHOR0,. + 0
 162              		.type	ser_cfg.12912, %object
 163              		.size	ser_cfg.12912, 12
 164              	ser_cfg.12912:
 165 0000 00C20100 		.word	115200
 166 0004 0000     		.short	0
 167 0006 0000     		.short	0
 168 0008 0000     		.short	0
 169 000a 0000     		.space	2
 170              		.section	.rodata.__stack_chk_fail.str1.4,"aMS",%progbits,1
 171              		.align	2
ARM GAS  C:\Users\ludo\AppData\Local\Temp\ccwVTd2U.s 			page 4


 172              	.LC0:
 173 0000 53746163 		.ascii	"Stack smashing detected\000"
 173      6B20736D 
 173      61736869 
 173      6E672064 
 173      65746563 
 174              		.text
 175              	.Letext0:
 176              		.file 2 "c:\\users\\ludo\\documents\\eclipse_e-puck2\\tools\\gcc-arm-none-eabi-7-2017-q4-major-win
 177              		.file 3 "c:\\users\\ludo\\documents\\eclipse_e-puck2\\tools\\gcc-arm-none-eabi-7-2017-q4-major-win
 178              		.file 4 "c:\\users\\ludo\\documents\\eclipse_e-puck2\\tools\\gcc-arm-none-eabi-7-2017-q4-major-win
 179              		.file 5 "../lib/e-puck2_main-processor/ChibiOS//os/rt/ports/ARMCMx/compilers/GCC/chtypes.h"
 180              		.file 6 "../lib/e-puck2_main-processor/ChibiOS//os/rt/include/chsystypes.h"
 181              		.file 7 "../lib/e-puck2_main-processor/ChibiOS//os/rt/include/chschd.h"
 182              		.file 8 "../lib/e-puck2_main-processor/ChibiOS//os/ext/CMSIS/include/core_cm4.h"
 183              		.file 9 "../lib/e-puck2_main-processor/ChibiOS//os/ext/CMSIS/ST/system_stm32f4xx.h"
 184              		.file 10 "../lib/e-puck2_main-processor/ChibiOS//os/ext/CMSIS/ST/stm32f407xx.h"
 185              		.file 11 "../lib/e-puck2_main-processor/ChibiOS//os/rt/ports/ARMCMx/chcore.h"
 186              		.file 12 "../lib/e-puck2_main-processor/ChibiOS//os/rt/ports/ARMCMx/chcore_v7m.h"
 187              		.file 13 "../lib/e-puck2_main-processor/ChibiOS//os/rt/include/chdebug.h"
 188              		.file 14 "../lib/e-puck2_main-processor/ChibiOS//os/rt/include/chtm.h"
 189              		.file 15 "../lib/e-puck2_main-processor/ChibiOS//os/rt/include/chstats.h"
 190              		.file 16 "../lib/e-puck2_main-processor/ChibiOS//os/rt/include/chsem.h"
 191              		.file 17 "../lib/e-puck2_main-processor/ChibiOS//os/rt/include/chmtx.h"
 192              		.file 18 "../lib/e-puck2_main-processor/ChibiOS//os/rt/include/chregistry.h"
 193              		.file 19 "../lib/e-puck2_main-processor/ChibiOS//os/rt/include/chevents.h"
 194              		.file 20 "../lib/e-puck2_main-processor/ChibiOS//os/rt/include/chqueues.h"
 195              		.file 21 "../lib/e-puck2_main-processor/ChibiOS//os/hal/ports/STM32/STM32F4xx/stm32_dma.h"
 196              		.file 22 "../lib/e-puck2_main-processor/ChibiOS//os/hal/include/hal_ioblock.h"
 197              		.file 23 "../lib/e-puck2_main-processor/ChibiOS//os/hal/ports/STM32/LLD/GPIOv2/pal_lld.h"
 198              		.file 24 "../lib/e-puck2_main-processor/ChibiOS//os/hal/include/adc.h"
 199              		.file 25 "../lib/e-puck2_main-processor/ChibiOS//os/hal/ports/STM32/STM32F4xx/adc_lld.h"
 200              		.file 26 "../lib/e-puck2_main-processor/ChibiOS//os/hal/include/can.h"
 201              		.file 27 "../lib/e-puck2_main-processor/ChibiOS//os/hal/ports/STM32/LLD/can_lld.h"
 202              		.file 28 "../lib/e-puck2_main-processor/ChibiOS//os/hal/include/dac.h"
 203              		.file 29 "../lib/e-puck2_main-processor/ChibiOS//os/hal/ports/STM32/LLD/DACv1/dac_lld.h"
 204              		.file 30 "../lib/e-puck2_main-processor/ChibiOS//os/hal/include/ext.h"
 205              		.file 31 "../lib/e-puck2_main-processor/ChibiOS//os/hal/ports/STM32/LLD/ext_lld.h"
 206              		.file 32 "../lib/e-puck2_main-processor/ChibiOS//os/hal/include/gpt.h"
 207              		.file 33 "../lib/e-puck2_main-processor/ChibiOS//os/hal/ports/STM32/LLD/TIMv1/gpt_lld.h"
 208              		.file 34 "../lib/e-puck2_main-processor/ChibiOS//os/hal/ports/STM32/LLD/TIMv1/stm32_tim.h"
 209              		.file 35 "../lib/e-puck2_main-processor/ChibiOS//os/hal/include/i2c.h"
 210              		.file 36 "../lib/e-puck2_main-processor/ChibiOS//os/hal/ports/STM32/LLD/I2Cv1/i2c_lld.h"
 211              		.file 37 "../lib/e-puck2_main-processor/ChibiOS//os/hal/include/i2s.h"
 212              		.file 38 "../lib/e-puck2_main-processor/ChibiOS//os/hal/ports/STM32/LLD/SPIv1/i2s_lld.h"
 213              		.file 39 "../lib/e-puck2_main-processor/ChibiOS//os/hal/include/pwm.h"
 214              		.file 40 "../lib/e-puck2_main-processor/ChibiOS//os/hal/ports/STM32/LLD/TIMv1/pwm_lld.h"
 215              		.file 41 "../lib/e-puck2_main-processor/ChibiOS//os/hal/include/serial.h"
 216              		.file 42 "../lib/e-puck2_main-processor/ChibiOS//os/hal/ports/STM32/LLD/USARTv1/serial_lld.h"
 217              		.file 43 "../lib/e-puck2_main-processor/ChibiOS//os/hal/include/sdc.h"
 218              		.file 44 "../lib/e-puck2_main-processor/ChibiOS//os/hal/ports/STM32/LLD/sdc_lld.h"
 219              		.file 45 "../lib/e-puck2_main-processor/ChibiOS//os/hal/include/spi.h"
 220              		.file 46 "../lib/e-puck2_main-processor/ChibiOS//os/hal/ports/STM32/LLD/SPIv1/spi_lld.h"
 221              		.file 47 "../lib/e-puck2_main-processor/ChibiOS//os/hal/include/usb.h"
 222              		.file 48 "../lib/e-puck2_main-processor/ChibiOS//os/hal/ports/STM32/LLD/OTGv1/usb_lld.h"
 223              		.file 49 "../lib/e-puck2_main-processor/ChibiOS//os/hal/ports/STM32/LLD/OTGv1/stm32_otg.h"
 224              		.file 50 "../lib/e-puck2_main-processor/ChibiOS//os/hal/include/serial_usb.h"
ARM GAS  C:\Users\ludo\AppData\Local\Temp\ccwVTd2U.s 			page 5


 225              		.file 51 "../lib/e-puck2_main-processor/src/usbcfg.h"
 226              		.file 52 "../lib/e-puck2_main-processor/ChibiOS_ext/os/hal/include/../ports/STM32/STM32F4xx/dcmi_l
 227              		.file 53 "c:\\users\\ludo\\documents\\eclipse_e-puck2\\tools\\gcc-arm-none-eabi-7-2017-q4-major-wi
 228              		.file 54 "c:\\users\\ludo\\documents\\eclipse_e-puck2\\tools\\gcc-arm-none-eabi-7-2017-q4-major-wi
 229              		.file 55 "c:\\users\\ludo\\documents\\eclipse_e-puck2\\tools\\gcc-arm-none-eabi-7-2017-q4-major-wi
 230              		.file 56 "../lib/e-puck2_main-processor/src/msgbus/messagebus.h"
 231              		.file 57 "c:\\users\\ludo\\documents\\eclipse_e-puck2\\tools\\gcc-arm-none-eabi-7-2017-q4-major-wi
 232              		.file 58 "c:\\users\\ludo\\documents\\eclipse_e-puck2\\tools\\gcc-arm-none-eabi-7-2017-q4-major-wi
 233              		.file 59 "../lib/e-puck2_main-processor/src/parameter/parameter.h"
 234              		.file 60 "./main.h"
 235              		.file 61 "../lib/e-puck2_main-processor/ChibiOS//os/rt/include/chsys.h"
 236              		.file 62 "../lib/e-puck2_main-processor/ChibiOS//os/hal/include/hal.h"
 237              		.file 63 "../lib/e-puck2_main-processor/src/memory_protection.h"
 238              		.file 64 "../lib/e-puck2_main-processor/src/motors.h"
 239              		.file 65 "../lib/e-puck2_main-processor/src/spi_comm.h"
 240              		.file 66 "../lib/e-puck2_main-processor/src/audio/microphone.h"
 241              		.file 67 "../lib/e-puck2_main-processor/src/sensors/VL53L0X/VL53L0X.h"
 242              		.file 68 "gestionMouvements.h"
 243              		.file 69 "./audio_processing.h"
 244              		.file 70 "../lib/e-puck2_main-processor/ChibiOS//os/rt/include/chthreads.h"